Certificate:
    Data:
        Version: 3 (0x2)
        Serial Number: 0 (0x0)
        Signature Algorithm: md5WithRSAEncryption
        Issuer: C=US, ST=Florida, L=Fort Lauderdale, O=Supernets Inc., OU=aikido, CN=aikido.supernets.net/Email=hostmaster.supernets.net
        Validity
            Not Before: Nov 28 16:26:25 2001 GMT
            Not After : Nov 23 16:26:25 2002 GMT
        Subject: C=US, ST=Florida, L=Fort Lauderdale, O=Supernets Inc., OU=aikido, CN=aikido.supernets.net/Email=hostmaster.supernets.net
        Subject Public Key Info:
            Public Key Algorithm: rsaEncryption
            RSA Public Key: (1024 bit)
                Modulus (1024 bit):
                    00:f1:f7:07:32:37:69:4d:10:21:eb:dc:68:90:3b:
                    97:87:18:5d:ef:2e:af:a3:4f:fa:cd:ba:e1:29:0e:
                    c5:c7:0f:f9:57:de:3e:43:67:6a:82:08:b0:52:e1:
                    f6:74:b6:ac:84:a3:78:34:b2:ce:c7:c6:8f:68:2b:
                    23:d6:ca:f7:7b:04:07:48:24:6b:e2:1d:56:d1:b1:
                    4e:a6:1c:fb:27:e2:3b:49:cb:0a:96:62:26:e4:e8:
                    70:78:81:70:e8:ef:4b:2a:2b:8f:86:8c:a0:d7:93:
                    9f:0f:2a:6d:49:ba:1e:a4:2f:cc:ae:25:96:85:bd:
                    de:56:36:1a:3d:e3:d1:7f:73
                Exponent: 65537 (0x10001)
        X509v3 extensions:
            X509v3 Subject Key Identifier: 
                B5:CD:C6:20:02:A9:B5:1B:CF:1A:10:20:2B:07:05:77:BC:70:77:16
            X509v3 Authority Key Identifier: 
                keyid:B5:CD:C6:20:02:A9:B5:1B:CF:1A:10:20:2B:07:05:77:BC:70:77:16
                DirName:/C=US/ST=Florida/L=Fort Lauderdale/O=Supernets Inc./OU=aikido/CN=aikido.supernets.net/Email=hostmaster.supernets.net
                serial:00

            X509v3 Basic Constraints: 
                CA:TRUE
    Signature Algorithm: md5WithRSAEncryption
        6f:67:ea:23:4f:7d:dc:b0:4c:46:e5:f4:e8:f4:3a:cd:e9:8c:
        fe:87:62:d4:87:13:45:0c:56:3b:2f:fc:25:42:be:88:7c:f2:
        3f:ff:bf:eb:00:62:68:c2:d7:67:36:84:bb:80:c1:80:e5:26:
        01:f7:7b:0b:2e:02:8c:53:86:fc:49:3d:30:72:3e:5d:6a:df:
        e8:b0:57:f1:e0:14:f5:75:5b:8f:9d:f7:c8:80:7f:01:85:ba:
        57:fb:10:71:d1:a0:cf:bd:dd:af:a1:54:77:63:d8:95:57:c3:
        c0:ee:12:79:8c:48:e0:94:22:3e:0e:06:81:95:d9:ec:ba:b1:
        a2:ea
-----BEGIN CERTIFICATE-----
MIID3DCCA0WgAwIBAgIBADANBgkqhkiG9w0BAQQFADCBqzELMAkGA1UEBhMCVVMx
EDAOBgNVBAgTB0Zsb3JpZGExGDAWBgNVBAcTD0ZvcnQgTGF1ZGVyZGFsZTEXMBUG
A1UEChMOU3VwZXJuZXRzIEluYy4xDzANBgNVBAsTBmFpa2lkbzEdMBsGA1UEAxMU
YWlraWRvLnN1cGVybmV0cy5uZXQxJzAlBgkqhkiG9w0BCQEWGGhvc3RtYXN0ZXIu
c3VwZXJuZXRzLm5ldDAeFw0wMTExMjgxNjI2MjVaFw0wMjExMjMxNjI2MjVaMIGr
MQswCQYDVQQGEwJVUzEQMA4GA1UECBMHRmxvcmlkYTEYMBYGA1UEBxMPRm9ydCBM
YXVkZXJkYWxlMRcwFQYDVQQKEw5TdXBlcm5ldHMgSW5jLjEPMA0GA1UECxMGYWlr
aWRvMR0wGwYDVQQDExRhaWtpZG8uc3VwZXJuZXRzLm5ldDEnMCUGCSqGSIb3DQEJ
ARYYaG9zdG1hc3Rlci5zdXBlcm5ldHMubmV0MIGfMA0GCSqGSIb3DQEBAQUAA4GN
ADCBiQKBgQDx9wcyN2lNECHr3GiQO5eHGF3vLq+jT/rNuuEpDsXHD/lX3j5DZ2qC
CLBS4fZ0tqyEo3g0ss7Hxo9oKyPWyvd7BAdIJGviHVbRsU6mHPsn4jtJywqWYibk
6HB4gXDo70sqK4+GjKDXk58PKm1Juh6kL8yuJZaFvd5WNho949F/cwIDAQABo4IB
DDCCAQgwHQYDVR0OBBYEFLXNxiACqbUbzxoQICsHBXe8cHcWMIHYBgNVHSMEgdAw
gc2AFLXNxiACqbUbzxoQICsHBXe8cHcWoYGxpIGuMIGrMQswCQYDVQQGEwJVUzEQ
MA4GA1UECBMHRmxvcmlkYTEYMBYGA1UEBxMPRm9ydCBMYXVkZXJkYWxlMRcwFQYD
VQQKEw5TdXBlcm5ldHMgSW5jLjEPMA0GA1UECxMGYWlraWRvMR0wGwYDVQQDExRh
aWtpZG8uc3VwZXJuZXRzLm5ldDEnMCUGCSqGSIb3DQEJARYYaG9zdG1hc3Rlci5z
dXBlcm5ldHMubmV0ggEAMAwGA1UdEwQFMAMBAf8wDQYJKoZIhvcNAQEEBQADgYEA
b2fqI0993LBMRuX06PQ6zemM/odi1IcTRQxWOy/8JUK+iHzyP/+/6wBiaMLXZzaE
u4DBgOUmAfd7Cy4CjFOG/Ek9MHI+XWrf6LBX8eAU9XVbj533yIB/AYW6V/sQcdGg
z73dr6FUd2PYlVfDwO4SeYxI4JQiPg4GgZXZ7Lqxouo=
-----END CERTIFICATE-----
-----BEGIN RSA PRIVATE KEY-----
MIICXQIBAAKBgQDx9wcyN2lNECHr3GiQO5eHGF3vLq+jT/rNuuEpDsXHD/lX3j5D
Z2qCCLBS4fZ0tqyEo3g0ss7Hxo9oKyPWyvd7BAdIJGviHVbRsU6mHPsn4jtJywqW
Yibk6HB4gXDo70sqK4+GjKDXk58PKm1Juh6kL8yuJZaFvd5WNho949F/cwIDAQAB
AoGACm4UkFSVJG5CmBErLLR05qzlN68ygP6sl/urQwLRAbCtld0NoAgwLiTDvP7i
ictqClmlj9f5U+E6Q0pAxDyBiGWA4lXloCWdUSbFG4GXJQiwTkP1+X4XA16wDW1j
cMnr/pVkAFuXjjGd6oPmjT2w2DAesIoBzo0KkCA74Ij32ZECQQD+OCprqNcdT8a9
wddnxEQJN0v/AYNm4JQ5sAaXJwBS0EFdP6Zaehnn9TPoZbxO2m9AnECXXP+DGvFs
FnXSd0o7AkEA86jjp4w21pKHAGUAH3O6z+xA1M3ElwDzGY3HPSB6v2Nkpde8tb0Z
FwmhGMqkr60ntQXG7xDJHteWMfR83h4UKQJBAILS6JGqu7jr2vzAClfuGo0bldJP
Nw30OJNPULTsbzAu19Ri8vrQpxBFkUbhQ/zYUDRRtLOwOhWAAgl7rXp3xQ0CQQCg
Tueo3lleBv2HRuwzxUKNddSZrd+/scI/d8Yz82CO9ufLLQtdTtJpE87Hrtt3MadE
NE7UDukjv5dzunVE9ekxAkAZqtKGKbaoWWxKkW/LS3bztzH0gqm4F0jd66a5NQTc
sSakjkrZ5Fuz9patDVxEGm2nieUxudx1HJe5479kkyVY
-----END RSA PRIVATE KEY-----
